target datalayout = "e-m:e-p270:32:32-p271:32:32-p272:64:64-i64:64-i128:128-f80:128-n8:16:32:64-S128"
target triple = "x86_64-unknown-linux-gnu"

%"class.base::Value" = type <{ ptr, i32, [4 x i8] }>
%"class.base::FundamentalValue" = type { %"class.base::Value.base", %union.anon.2 }
%"class.base::Value.base" = type <{ ptr, i32 }>
%union.anon.2 = type { double }

; Function Attrs: mustprogress nounwind uwtable
define dso_local void @_ZN4base5ValueC2ENS0_4TypeE(ptr noundef nonnull align 8 dereferenceable(12) %this, i32 noundef %type) unnamed_addr #0 align 2 {
entry:
  %this.addr = alloca ptr, align 8
  %type.addr = alloca i32, align 4
  store ptr %this, ptr %this.addr, align 8
  store i32 %type, ptr %type.addr, align 4
  %this1 = load ptr, ptr %this.addr, align 8
  store ptr getelementptr inbounds ({ [17 x ptr] }, ptr @_ZTVN4base5ValueE, i32 0, i32 0, i32 2), ptr %this1, align 8
  %type_ = getelementptr inbounds %"class.base::Value", ptr %this1, i32 0, i32 1
  %0 = load i32, ptr %type.addr, align 4
  store i32 %0, ptr %type_, align 8
  ret void
}

; Function Attrs: mustprogress nounwind uwtable
define dso_local void @_ZN4base16FundamentalValueC2Eb(ptr noundef nonnull align 8 dereferenceable(24) %this, i1 noundef zeroext %in_value) unnamed_addr #0 align 2 {
entry:
  %this.addr = alloca ptr, align 8
  %in_value.addr = alloca i8, align 1
  store ptr %this, ptr %this.addr, align 8
  %frombool = zext i1 %in_value to i8
  store i8 %frombool, ptr %in_value.addr, align 1
  %this1 = load ptr, ptr %this.addr, align 8
  call void @_ZN4base5ValueC2ENS0_4TypeE(ptr noundef nonnull align 8 dereferenceable(12) %this1, i32 noundef 1)
  store ptr getelementptr inbounds ({ [17 x ptr] }, ptr @_ZTVN4base16FundamentalValueE, i32 0, i32 0, i32 2), ptr %this1, align 8
  %0 = getelementptr inbounds %"class.base::FundamentalValue", ptr %this1, i32 0, i32 1
  %1 = load i8, ptr %in_value.addr, align 1
  %tobool = trunc i8 %1 to i1
  %frombool2 = zext i1 %tobool to i8
  store i8 %frombool2, ptr %0, align 8
  ret void
}