; Function Attrs: mustprogress nofree norecurse nosync nounwind willreturn memory(argmem: write) uwtable
define dso_local void @_ZN4base16FundamentalValueC2Eb(ptr nocapture noundef nonnull writeonly align 8 dereferenceable(24) %this, i1 noundef zeroext %in_value) unnamed_addr #6 align 2 {
entry:
  %frombool = zext i1 %in_value to i8
  %type_.i = getelementptr inbounds i8, ptr %this, i64 8
  store i32 1, ptr %type_.i, align 8
  store ptr getelementptr inbounds ({ [17 x ptr] }, ptr @_ZTVN4base16FundamentalValueE, i64 0, i32 0, i64 2), ptr %this, align 8
  %0 = getelementptr inbounds i8, ptr %this, i64 16
  store i8 %frombool, ptr %0, align 8
  ret void
}